target datalayout = "e-m:e-p270:32:32-p271:32:32-p272:64:64-i64:64-i128:128-f80:128-n8:16:32:64-S128"
target triple = "x86_64-pc-linux-gnu"

%struct.StreamSpecifier = type { i32, i32, i64, i32, i8, i8, i32, ptr, ptr, ptr }
%struct.AVStream = type { ptr, i32, i32, ptr, ptr, %struct.AVRational, i64, i64, i64, i32, i32, %struct.AVRational, ptr, %struct.AVRational, %struct.AVPacket, i32, %struct.AVRational, i32 }
%struct.AVPacket = type { ptr, i64, i64, ptr, i32, i32, i32, ptr, i32, i64, i64, ptr, ptr, %struct.AVRational }
%struct.AVRational = type { i32, i32 }
%struct.AVFormatContext = type { ptr, ptr, ptr, ptr, ptr, i32, i32, ptr, i32, ptr, i32, ptr, ptr, i64, i64, i64, i32, i32, i32, i64, i64, ptr, i32, i32, ptr, i32, i32, i32, i32, ptr, i64, i32, i32, %struct.AVIOInterruptCB, i32, i32, i32, i32, i64, i32, i32, i32, i32, i32, i32, i32, i32, i32, i32, i32, i32, i64, i32, i32, i32, i32, i32, ptr, ptr, ptr, ptr, i32, ptr, ptr, ptr, ptr, i32, ptr, ptr, i64, ptr, ptr, ptr, i64 }
%struct.AVIOInterruptCB = type { ptr, ptr }
%struct.AVCodecParameters = type { i32, i32, i32, ptr, i32, ptr, i32, i32, i64, i32, i32, i32, i32, i32, i32, %struct.AVRational, %struct.AVRational, i32, i32, i32, i32, i32, i32, i32, %struct.AVChannelLayout, i32, i32, i32, i32, i32, i32 }
%struct.AVChannelLayout = type { i32, i32, %union.anon.3, ptr }
%union.anon.3 = type { i64 }
%struct.AVDictionaryEntry = type { ptr, ptr }
%struct.AVCodec = type { ptr, ptr, i32, i32, i32, i8, ptr, ptr, ptr, ptr, ptr, ptr, ptr, ptr }

@.str.52 = private unnamed_addr constant [1 x i8] zeroinitializer, align 1

; Function Attrs: nounwind uwtable
define void @stream_specifier_uninit(ptr noundef %0) #0 {
  %2 = alloca ptr, align 8
  store ptr %0, ptr %2, align 8, !tbaa !119
  %3 = load ptr, ptr %2, align 8, !tbaa !119
  %4 = getelementptr inbounds nuw %struct.StreamSpecifier, ptr %3, i32 0, i32 7
  call void @av_freep(ptr noundef %4)
  %5 = load ptr, ptr %2, align 8, !tbaa !119
  %6 = getelementptr inbounds nuw %struct.StreamSpecifier, ptr %5, i32 0, i32 8
  call void @av_freep(ptr noundef %6)
  %7 = load ptr, ptr %2, align 8, !tbaa !119
  %8 = getelementptr inbounds nuw %struct.StreamSpecifier, ptr %7, i32 0, i32 9
  call void @av_freep(ptr noundef %8)
  %9 = load ptr, ptr %2, align 8, !tbaa !119
  call void @llvm.memset.p0.i64(ptr align 8 %9, i8 0, i64 56, i1 false)
  ret void
}

; Function Attrs: nounwind uwtable
define i32 @check_stream_specifier(ptr noundef %0, ptr noundef %1, ptr noundef %2) #0 {
  %4 = alloca i32, align 4
  %5 = alloca ptr, align 8
  %6 = alloca ptr, align 8
  %7 = alloca ptr, align 8
  %8 = alloca %struct.StreamSpecifier, align 8
  %9 = alloca i32, align 4
  %10 = alloca i32, align 4
  store ptr %0, ptr %5, align 8, !tbaa !133
  store ptr %1, ptr %6, align 8, !tbaa !135
  store ptr %2, ptr %7, align 8, !tbaa !10
  call void @llvm.lifetime.start.p0(i64 56, ptr %8) #11
  call void @llvm.lifetime.start.p0(i64 4, ptr %9) #11
  %11 = load ptr, ptr %7, align 8, !tbaa !10
  %12 = call i32 @stream_specifier_parse(ptr noundef %8, ptr noundef %11, i32 noundef 0, ptr noundef null)
  store i32 %12, ptr %9, align 4, !tbaa !8
  %13 = load i32, ptr %9, align 4, !tbaa !8
  %14 = icmp slt i32 %13, 0
  br i1 %14, label %15, label %17

15:                                               ; preds = %3
  %16 = load i32, ptr %9, align 4, !tbaa !8
  store i32 %16, ptr %4, align 4
  store i32 1, ptr %10, align 4
  br label %22

17:                                               ; preds = %3
  %18 = load ptr, ptr %5, align 8, !tbaa !133
  %19 = load ptr, ptr %6, align 8, !tbaa !135
  %20 = call i32 @stream_specifier_match(ptr noundef %8, ptr noundef %18, ptr noundef %19, ptr noundef null)
  store i32 %20, ptr %9, align 4, !tbaa !8
  call void @stream_specifier_uninit(ptr noundef %8)
  %21 = load i32, ptr %9, align 4, !tbaa !8
  store i32 %21, ptr %4, align 4
  store i32 1, ptr %10, align 4
  br label %22

22:                                               ; preds = %17, %15
  call void @llvm.lifetime.end.p0(i64 4, ptr %9) #11
  call void @llvm.lifetime.end.p0(i64 56, ptr %8) #11
  %23 = load i32, ptr %4, align 4
  ret i32 %23
}

; Function Attrs: nounwind uwtable
define i32 @filter_codec_opts(ptr noundef %0, i32 noundef %1, ptr noundef %2, ptr noundef %3, ptr noundef %4, ptr noundef %5, ptr noundef %6) #0 {
  %8 = alloca i32, align 4
  %9 = alloca ptr, align 8
  %10 = alloca i32, align 4
  %11 = alloca ptr, align 8
  %12 = alloca ptr, align 8
  %13 = alloca ptr, align 8
  %14 = alloca ptr, align 8
  %15 = alloca ptr, align 8
  %16 = alloca ptr, align 8
  %17 = alloca ptr, align 8
  %18 = alloca i32, align 4
  %19 = alloca i8, align 1
  %20 = alloca ptr, align 8
  %21 = alloca ptr, align 8
  %22 = alloca ptr, align 8
  %23 = alloca i32, align 4
  %24 = alloca i32, align 4
  %25 = alloca i32, align 4
  store ptr %0, ptr %9, align 8, !tbaa !105
  store i32 %1, ptr %10, align 4, !tbaa !8
  store ptr %2, ptr %11, align 8, !tbaa !133
  store ptr %3, ptr %12, align 8, !tbaa !135
  store ptr %4, ptr %13, align 8, !tbaa !191
  store ptr %5, ptr %14, align 8, !tbaa !192
  store ptr %6, ptr %15, align 8, !tbaa !192
  call void @llvm.lifetime.start.p0(i64 8, ptr %16) #11
  store ptr null, ptr %16, align 8, !tbaa !105
  call void @llvm.lifetime.start.p0(i64 8, ptr %17) #11
  store ptr null, ptr %17, align 8, !tbaa !180
  call void @llvm.lifetime.start.p0(i64 4, ptr %18) #11
  %26 = load ptr, ptr %11, align 8, !tbaa !133
  %27 = getelementptr inbounds nuw %struct.AVFormatContext, ptr %26, i32 0, i32 2
  %28 = load ptr, ptr %27, align 8, !tbaa !194
  %29 = icmp ne ptr %28, null
  %30 = select i1 %29, i32 1, i32 2
  store i32 %30, ptr %18, align 4, !tbaa !8
  call void @llvm.lifetime.start.p0(i64 1, ptr %19) #11
  store i8 0, ptr %19, align 1, !tbaa !20
  call void @llvm.lifetime.start.p0(i64 8, ptr %20) #11
  %31 = call ptr @avcodec_get_class()
  store ptr %31, ptr %20, align 8, !tbaa !30
  %32 = load ptr, ptr %12, align 8, !tbaa !135
  %33 = getelementptr inbounds nuw %struct.AVStream, ptr %32, i32 0, i32 3
  %34 = load ptr, ptr %33, align 8, !tbaa !174
  %35 = getelementptr inbounds nuw %struct.AVCodecParameters, ptr %34, i32 0, i32 0
  %36 = load i32, ptr %35, align 8, !tbaa !175
  switch i32 %36, label %46 [
    i32 0, label %37
    i32 1, label %40
    i32 3, label %43
  ]

37:                                               ; preds = %7
  store i8 118, ptr %19, align 1, !tbaa !20
  %38 = load i32, ptr %18, align 4, !tbaa !8
  %39 = or i32 %38, 16
  store i32 %39, ptr %18, align 4, !tbaa !8
  br label %46

40:                                               ; preds = %7
  store i8 97, ptr %19, align 1, !tbaa !20
  %41 = load i32, ptr %18, align 4, !tbaa !8
  %42 = or i32 %41, 8
  store i32 %42, ptr %18, align 4, !tbaa !8
  br label %46

43:                                               ; preds = %7
  store i8 115, ptr %19, align 1, !tbaa !20
  %44 = load i32, ptr %18, align 4, !tbaa !8
  %45 = or i32 %44, 32
  store i32 %45, ptr %18, align 4, !tbaa !8
  br label %46

46:                                               ; preds = %7, %43, %40, %37
  br label %47

47:                                               ; preds = %157, %155, %46
  %48 = load ptr, ptr %9, align 8, !tbaa !105
  %49 = load ptr, ptr %17, align 8, !tbaa !180
  %50 = call ptr @av_dict_iterate(ptr noundef %48, ptr noundef %49)
  store ptr %50, ptr %17, align 8, !tbaa !180
  %51 = icmp ne ptr %50, null
  br i1 %51, label %52, label %158

52:                                               ; preds = %47
  call void @llvm.lifetime.start.p0(i64 8, ptr %21) #11
  call void @llvm.lifetime.start.p0(i64 8, ptr %22) #11
  %53 = load ptr, ptr %17, align 8, !tbaa !180
  %54 = getelementptr inbounds nuw %struct.AVDictionaryEntry, ptr %53, i32 0, i32 0
  %55 = load ptr, ptr %54, align 8, !tbaa !195
  %56 = call ptr @strchr(ptr noundef %55, i32 noundef 58) #12
  store ptr %56, ptr %22, align 8, !tbaa !10
  call void @llvm.lifetime.start.p0(i64 4, ptr %23) #11
  store i32 0, ptr %23, align 4, !tbaa !8
  %57 = load ptr, ptr %22, align 8, !tbaa !10
  %58 = icmp ne ptr %57, null
  br i1 %58, label %59, label %79

59:                                               ; preds = %52
  call void @llvm.lifetime.start.p0(i64 4, ptr %24) #11
  %60 = load ptr, ptr %11, align 8, !tbaa !133
  %61 = load ptr, ptr %12, align 8, !tbaa !135
  %62 = load ptr, ptr %22, align 8, !tbaa !10
  %63 = getelementptr inbounds i8, ptr %62, i64 1
  %64 = call i32 @check_stream_specifier(ptr noundef %60, ptr noundef %61, ptr noundef %63)
  store i32 %64, ptr %24, align 4, !tbaa !8
  %65 = load i32, ptr %24, align 4, !tbaa !8
  %66 = icmp slt i32 %65, 0
  br i1 %66, label %67, label %69

67:                                               ; preds = %59
  call void @av_dict_free(ptr noundef %16)
  %68 = load i32, ptr %24, align 4, !tbaa !8
  store i32 %68, ptr %8, align 4
  store i32 1, ptr %25, align 4
  br label %76

69:                                               ; preds = %59
  %70 = load i32, ptr %24, align 4, !tbaa !8
  %71 = icmp ne i32 %70, 0
  br i1 %71, label %73, label %72

72:                                               ; preds = %69
  store i32 3, ptr %25, align 4
  br label %76, !llvm.loop !196

73:                                               ; preds = %69
  br label %74

74:                                               ; preds = %73
  %75 = load ptr, ptr %22, align 8, !tbaa !10
  store i8 0, ptr %75, align 1, !tbaa !20
  store i32 0, ptr %25, align 4
  br label %76

76:                                               ; preds = %74, %72, %67
  call void @llvm.lifetime.end.p0(i64 4, ptr %24) #11
  %77 = load i32, ptr %25, align 4
  switch i32 %77, label %155 [
    i32 0, label %78
  ]

78:                                               ; preds = %76
  br label %79

79:                                               ; preds = %78, %52
  %80 = load ptr, ptr %17, align 8, !tbaa !180
  %81 = getelementptr inbounds nuw %struct.AVDictionaryEntry, ptr %80, i32 0, i32 0
  %82 = load ptr, ptr %81, align 8, !tbaa !195
  %83 = load i32, ptr %18, align 4, !tbaa !8
  %84 = call ptr @av_opt_find(ptr noundef %20, ptr noundef %82, ptr noundef null, i32 noundef %83, i32 noundef 2)
  %85 = icmp ne ptr %84, null
  br i1 %85, label %101, label %86

86:                                               ; preds = %79
  %87 = load ptr, ptr %13, align 8, !tbaa !191
  %88 = icmp ne ptr %87, null
  br i1 %88, label %89, label %101

89:                                               ; preds = %86
  %90 = load ptr, ptr %13, align 8, !tbaa !191
  %91 = getelementptr inbounds nuw %struct.AVCodec, ptr %90, i32 0, i32 10
  %92 = load ptr, ptr %91, align 8, !tbaa !197
  store ptr %92, ptr %21, align 8, !tbaa !30
  %93 = icmp ne ptr %92, null
  br i1 %93, label %94, label %109

94:                                               ; preds = %89
  %95 = load ptr, ptr %17, align 8, !tbaa !180
  %96 = getelementptr inbounds nuw %struct.AVDictionaryEntry, ptr %95, i32 0, i32 0
  %97 = load ptr, ptr %96, align 8, !tbaa !195
  %98 = load i32, ptr %18, align 4, !tbaa !8
  %99 = call ptr @av_opt_find(ptr noundef %21, ptr noundef %97, ptr noundef null, i32 noundef %98, i32 noundef 2)
  %100 = icmp ne ptr %99, null
  br i1 %100, label %101, label %109

101:                                              ; preds = %94, %86, %79
  %102 = load ptr, ptr %17, align 8, !tbaa !180
  %103 = getelementptr inbounds nuw %struct.AVDictionaryEntry, ptr %102, i32 0, i32 0
  %104 = load ptr, ptr %103, align 8, !tbaa !195
  %105 = load ptr, ptr %17, align 8, !tbaa !180
  %106 = getelementptr inbounds nuw %struct.AVDictionaryEntry, ptr %105, i32 0, i32 1
  %107 = load ptr, ptr %106, align 8, !tbaa !182
  %108 = call i32 @av_dict_set(ptr noundef %16, ptr noundef %104, ptr noundef %107, i32 noundef 0)
  store i32 1, ptr %23, align 4, !tbaa !8
  br label %137

109:                                              ; preds = %94, %89
  %110 = load ptr, ptr %17, align 8, !tbaa !180
  %111 = getelementptr inbounds nuw %struct.AVDictionaryEntry, ptr %110, i32 0, i32 0
  %112 = load ptr, ptr %111, align 8, !tbaa !195
  %113 = getelementptr inbounds i8, ptr %112, i64 0
  %114 = load i8, ptr %113, align 1, !tbaa !20
  %115 = sext i8 %114 to i32
  %116 = load i8, ptr %19, align 1, !tbaa !20
  %117 = sext i8 %116 to i32
  %118 = icmp eq i32 %115, %117
  br i1 %118, label %119, label %136

119:                                              ; preds = %109
  %120 = load ptr, ptr %17, align 8, !tbaa !180
  %121 = getelementptr inbounds nuw %struct.AVDictionaryEntry, ptr %120, i32 0, i32 0
  %122 = load ptr, ptr %121, align 8, !tbaa !195
  %123 = getelementptr inbounds i8, ptr %122, i64 1
  %124 = load i32, ptr %18, align 4, !tbaa !8
  %125 = call ptr @av_opt_find(ptr noundef %20, ptr noundef %123, ptr noundef null, i32 noundef %124, i32 noundef 2)
  %126 = icmp ne ptr %125, null
  br i1 %126, label %127, label %136

127:                                              ; preds = %119
  %128 = load ptr, ptr %17, align 8, !tbaa !180
  %129 = getelementptr inbounds nuw %struct.AVDictionaryEntry, ptr %128, i32 0, i32 0
  %130 = load ptr, ptr %129, align 8, !tbaa !195
  %131 = getelementptr inbounds i8, ptr %130, i64 1
  %132 = load ptr, ptr %17, align 8, !tbaa !180
  %133 = getelementptr inbounds nuw %struct.AVDictionaryEntry, ptr %132, i32 0, i32 1
  %134 = load ptr, ptr %133, align 8, !tbaa !182
  %135 = call i32 @av_dict_set(ptr noundef %16, ptr noundef %131, ptr noundef %134, i32 noundef 0)
  store i32 1, ptr %23, align 4, !tbaa !8
  br label %136

136:                                              ; preds = %127, %119, %109
  br label %137

137:                                              ; preds = %136, %101
  %138 = load ptr, ptr %22, align 8, !tbaa !10
  %139 = icmp ne ptr %138, null
  br i1 %139, label %140, label %142

140:                                              ; preds = %137
  %141 = load ptr, ptr %22, align 8, !tbaa !10
  store i8 58, ptr %141, align 1, !tbaa !20
  br label %142

142:                                              ; preds = %140, %137
  %143 = load i32, ptr %23, align 4, !tbaa !8
  %144 = icmp ne i32 %143, 0
  br i1 %144, label %145, label %154

145:                                              ; preds = %142
  %146 = load ptr, ptr %15, align 8, !tbaa !192
  %147 = icmp ne ptr %146, null
  br i1 %147, label %148, label %154

148:                                              ; preds = %145
  %149 = load ptr, ptr %15, align 8, !tbaa !192
  %150 = load ptr, ptr %17, align 8, !tbaa !180
  %151 = getelementptr inbounds nuw %struct.AVDictionaryEntry, ptr %150, i32 0, i32 0
  %152 = load ptr, ptr %151, align 8, !tbaa !195
  %153 = call i32 @av_dict_set(ptr noundef %149, ptr noundef %152, ptr noundef @.str.52, i32 noundef 0)
  br label %154

154:                                              ; preds = %148, %145, %142
  store i32 0, ptr %25, align 4
  br label %155

155:                                              ; preds = %154, %76
  call void @llvm.lifetime.end.p0(i64 4, ptr %23) #11
  call void @llvm.lifetime.end.p0(i64 8, ptr %22) #11
  call void @llvm.lifetime.end.p0(i64 8, ptr %21) #11
  %156 = load i32, ptr %25, align 4
  switch i32 %156, label %161 [
    i32 0, label %157
    i32 3, label %47
  ]

157:                                              ; preds = %155
  br label %47, !llvm.loop !196

158:                                              ; preds = %47
  %159 = load ptr, ptr %16, align 8, !tbaa !105
  %160 = load ptr, ptr %14, align 8, !tbaa !192
  store ptr %159, ptr %160, align 8, !tbaa !105
  store i32 0, ptr %8, align 4
  store i32 1, ptr %25, align 4
  br label %161

161:                                              ; preds = %158, %155
  call void @llvm.lifetime.end.p0(i64 8, ptr %20) #11
  call void @llvm.lifetime.end.p0(i64 1, ptr %19) #11
  call void @llvm.lifetime.end.p0(i64 4, ptr %18) #11
  call void @llvm.lifetime.end.p0(i64 8, ptr %17) #11
  call void @llvm.lifetime.end.p0(i64 8, ptr %16) #11
  %162 = load i32, ptr %8, align 4
  ret i32 %162
}