; Function Attrs: nounwind uwtable
define range(i32 -2147483648, 1) i32 @filter_codec_opts(ptr noundef %0, i32 %1, ptr noundef readonly captures(none) %2, ptr noundef readonly captures(address) %3, ptr noundef readonly captures(address_is_null) %4, ptr noundef writeonly captures(none) %5, ptr noundef %6) local_unnamed_addr #0 {
  %8 = alloca %struct.StreamSpecifier, align 8
  %9 = alloca ptr, align 8
  %10 = alloca ptr, align 8
  %11 = alloca ptr, align 8
  call void @llvm.lifetime.start.p0(i64 8, ptr nonnull %9) #15
  store ptr null, ptr %9, align 8, !tbaa !88
  %12 = getelementptr inbounds nuw i8, ptr %2, i64 16
  %13 = load ptr, ptr %12, align 8, !tbaa !165
  %.not = icmp eq ptr %13, null
  %14 = select i1 %.not, i32 2, i32 1
  call void @llvm.lifetime.start.p0(i64 8, ptr nonnull %10) #15
  %15 = tail call ptr @avcodec_get_class() #15
  store ptr %15, ptr %10, align 8, !tbaa !22
  %16 = getelementptr inbounds nuw i8, ptr %3, i64 16
  %17 = load ptr, ptr %16, align 8, !tbaa !151
  %18 = load i32, ptr %17, align 8, !tbaa !152
  switch i32 %18, label %25 [
    i32 0, label %19
    i32 1, label %21
    i32 3, label %23
  ]

19:                                               ; preds = %7
  %20 = or disjoint i32 %14, 16
  br label %25

21:                                               ; preds = %7
  %22 = or disjoint i32 %14, 8
  br label %25

23:                                               ; preds = %7
  %24 = or disjoint i32 %14, 32
  br label %25

25:                                               ; preds = %23, %21, %19, %7
  %.047 = phi i32 [ %14, %7 ], [ %24, %23 ], [ %22, %21 ], [ %20, %19 ]
  %.046 = phi i32 [ 0, %7 ], [ 115, %23 ], [ 97, %21 ], [ 118, %19 ]
  %26 = tail call ptr @av_dict_iterate(ptr noundef %0, ptr noundef null) #15
  %.not5568 = icmp eq ptr %26, null
  br i1 %.not5568, label %._crit_edge, label %.lr.ph

.lr.ph:                                           ; preds = %25
  %27 = getelementptr inbounds nuw i8, ptr %8, i64 32
  %28 = getelementptr inbounds nuw i8, ptr %8, i64 40
  %29 = getelementptr inbounds nuw i8, ptr %8, i64 48
  %30 = icmp ne ptr %4, null
  %31 = getelementptr inbounds nuw i8, ptr %4, i64 64
  %32 = icmp ne ptr %6, null
  br label %33

33:                                               ; preds = %.lr.ph, %.thread
  %34 = phi ptr [ %26, %.lr.ph ], [ %76, %.thread ]
  call void @llvm.lifetime.start.p0(i64 8, ptr nonnull %11) #15
  %35 = load ptr, ptr %34, align 8, !tbaa !166
  %36 = call ptr @strchr(ptr noundef nonnull dereferenceable(1) %35, i32 noundef 58) #16
  %.not56 = icmp eq ptr %36, null
  br i1 %.not56, label %44, label %37

37:                                               ; preds = %33
  %38 = getelementptr inbounds nuw i8, ptr %36, i64 1
  call void @llvm.lifetime.start.p0(i64 56, ptr nonnull %8) #15
  %39 = call i32 @stream_specifier_parse(ptr noundef nonnull %8, ptr noundef nonnull %38, i32 noundef 0, ptr noundef null)
  %40 = icmp slt i32 %39, 0
  br i1 %40, label %.thread.thread, label %41

.thread.thread:                                   ; preds = %37
  call void @llvm.lifetime.end.p0(i64 56, ptr nonnull %8) #15
  call void @av_dict_free(ptr noundef nonnull %9) #15
  call void @llvm.lifetime.end.p0(i64 8, ptr nonnull %11) #15
  br label %78

41:                                               ; preds = %37
  %42 = call i32 @stream_specifier_match(ptr noundef nonnull %8, ptr noundef readonly %2, ptr noundef readonly %3, ptr noundef null)
  call void @av_freep(ptr noundef nonnull %27) #15
  call void @av_freep(ptr noundef nonnull %28) #15
  call void @av_freep(ptr noundef nonnull %29) #15
  call void @llvm.lifetime.end.p0(i64 56, ptr nonnull %8) #15
  %.not57 = icmp eq i32 %42, 0
  br i1 %.not57, label %.thread, label %43, !llvm.loop !167

43:                                               ; preds = %41
  store i8 0, ptr %36, align 1, !tbaa !11
  %.pre = load ptr, ptr %34, align 8, !tbaa !166
  br label %44

44:                                               ; preds = %43, %33
  %45 = phi ptr [ %.pre, %43 ], [ %35, %33 ]
  %46 = call ptr @av_opt_find(ptr noundef nonnull %10, ptr noundef %45, ptr noundef null, i32 noundef %.047, i32 noundef 2) #15
  %47 = icmp eq ptr %46, null
  %or.cond = and i1 %30, %47
  br i1 %or.cond, label %48, label %53

48:                                               ; preds = %44
  %49 = load ptr, ptr %31, align 8, !tbaa !168
  store ptr %49, ptr %11, align 8, !tbaa !22
  %.not58 = icmp eq ptr %49, null
  br i1 %.not58, label %55, label %50

50:                                               ; preds = %48
  %51 = load ptr, ptr %34, align 8, !tbaa !166
  %52 = call ptr @av_opt_find(ptr noundef nonnull %11, ptr noundef %51, ptr noundef null, i32 noundef %.047, i32 noundef 2) #15
  %.not59 = icmp eq ptr %52, null
  br i1 %.not59, label %55, label %53

53:                                               ; preds = %50, %44
  %54 = load ptr, ptr %34, align 8, !tbaa !166
  br label %.sink.split

55:                                               ; preds = %50, %48
  %56 = load ptr, ptr %34, align 8, !tbaa !166
  %57 = load i8, ptr %56, align 1, !tbaa !11
  %58 = sext i8 %57 to i32
  %59 = icmp eq i32 %.046, %58
  br i1 %59, label %60, label %69

60:                                               ; preds = %55
  %61 = getelementptr inbounds nuw i8, ptr %56, i64 1
  %62 = call ptr @av_opt_find(ptr noundef nonnull %10, ptr noundef nonnull %61, ptr noundef null, i32 noundef %.047, i32 noundef 2) #15
  %.not60 = icmp eq ptr %62, null
  br i1 %.not60, label %69, label %63

63:                                               ; preds = %60
  %64 = load ptr, ptr %34, align 8, !tbaa !166
  %65 = getelementptr inbounds nuw i8, ptr %64, i64 1
  br label %.sink.split

.sink.split:                                      ; preds = %53, %63
  %.sink = phi ptr [ %65, %63 ], [ %54, %53 ]
  %66 = getelementptr inbounds nuw i8, ptr %34, i64 8
  %67 = load ptr, ptr %66, align 8, !tbaa !157
  %68 = call i32 @av_dict_set(ptr noundef nonnull %9, ptr noundef %.sink, ptr noundef %67, i32 noundef 0) #15
  br label %69

69:                                               ; preds = %.sink.split, %55, %60
  %70 = phi i1 [ false, %60 ], [ false, %55 ], [ true, %.sink.split ]
  br i1 %.not56, label %72, label %71

71:                                               ; preds = %69
  store i8 58, ptr %36, align 1, !tbaa !11
  br label %72

72:                                               ; preds = %71, %69
  %or.cond3 = and i1 %32, %70
  br i1 %or.cond3, label %73, label %.thread

73:                                               ; preds = %72
  %74 = load ptr, ptr %34, align 8, !tbaa !166
  %75 = call i32 @av_dict_set(ptr noundef nonnull %6, ptr noundef %74, ptr noundef nonnull @.str.52, i32 noundef 0) #15
  br label %.thread

.thread:                                          ; preds = %41, %72, %73
  call void @llvm.lifetime.end.p0(i64 8, ptr nonnull %11) #15
  %76 = call ptr @av_dict_iterate(ptr noundef %0, ptr noundef nonnull %34) #15
  %.not55 = icmp eq ptr %76, null
  br i1 %.not55, label %._crit_edge.loopexit, label %33

._crit_edge.loopexit:                             ; preds = %.thread
  %.pre69 = load ptr, ptr %9, align 8, !tbaa !88
  br label %._crit_edge

._crit_edge:                                      ; preds = %._crit_edge.loopexit, %25
  %77 = phi ptr [ %.pre69, %._crit_edge.loopexit ], [ null, %25 ]
  store ptr %77, ptr %5, align 8, !tbaa !88
  br label %78

78:                                               ; preds = %.thread.thread, %._crit_edge
  %.4 = phi i32 [ 0, %._crit_edge ], [ %39, %.thread.thread ]
  call void @llvm.lifetime.end.p0(i64 8, ptr nonnull %10) #15
  call void @llvm.lifetime.end.p0(i64 8, ptr nonnull %9) #15
  ret i32 %.4
}